target datalayout = "e-m:e-p270:32:32-p271:32:32-p272:64:64-i64:64-i128:128-f80:128-n8:16:32:64-S128"
target triple = "x86_64-pc-linux-gnu"

%struct.solaredge_conversion_data = type { i8, ptr, i16 }

@ett_solaredge_packet = internal global i32 0, align 4
@proto_solaredge = internal global i32 0, align 4

; Function Attrs: null_pointer_is_valid sspstrong uwtable
define internal i32 @dissect_solaredge(ptr noundef %0, ptr noundef %1, ptr noundef %2, ptr noundef %3) #0 {
  %5 = alloca ptr, align 8
  %6 = alloca ptr, align 8
  %7 = alloca ptr, align 8
  %8 = alloca ptr, align 8
  %9 = alloca ptr, align 8
  %10 = alloca ptr, align 8
  store ptr %0, ptr %5, align 8
  store ptr %1, ptr %6, align 8
  store ptr %2, ptr %7, align 8
  store ptr %3, ptr %8, align 8
  call void @llvm.lifetime.start.p0(i64 8, ptr %9) #8
  %11 = load ptr, ptr %6, align 8
  %12 = call ptr @find_or_create_conversation(ptr noundef %11)
  store ptr %12, ptr %9, align 8
  call void @llvm.lifetime.start.p0(i64 8, ptr %10) #8
  %13 = load ptr, ptr %9, align 8
  %14 = load i32, ptr @proto_solaredge, align 4
  %15 = call ptr @conversation_get_proto_data(ptr noundef %13, i32 noundef %14)
  %16 = icmp eq ptr %15, null
  br i1 %16, label %17, label %25

17:                                               ; preds = %4
  %18 = call ptr @wmem_file_scope()
  %19 = call noalias ptr @wmem_alloc(ptr noundef %18, i64 noundef 24) #9
  store ptr %19, ptr %10, align 8
  %20 = load ptr, ptr %10, align 8
  %21 = getelementptr inbounds nuw %struct.solaredge_conversion_data, ptr %20, i32 0, i32 0
  store i8 0, ptr %21, align 8
  %22 = load ptr, ptr %9, align 8
  %23 = load i32, ptr @proto_solaredge, align 4
  %24 = load ptr, ptr %10, align 8
  call void @conversation_add_proto_data(ptr noundef %22, i32 noundef %23, ptr noundef %24)
  br label %25

25:                                               ; preds = %17, %4
  %26 = load ptr, ptr %5, align 8
  %27 = load ptr, ptr %6, align 8
  %28 = load ptr, ptr %7, align 8
  %29 = load ptr, ptr %8, align 8
  %30 = load i32, ptr @ett_solaredge_packet, align 4
  %31 = load ptr, ptr %9, align 8
  %32 = call i32 @dissect_solaredge_recursive(ptr noundef %26, ptr noundef %27, ptr noundef %28, ptr noundef %29, i32 noundef %30, ptr noundef %31)
  call void @llvm.lifetime.end.p0(i64 8, ptr %10) #8
  call void @llvm.lifetime.end.p0(i64 8, ptr %9) #8
  ret i32 %32
}