; Function Attrs: null_pointer_is_valid sspstrong uwtable
define internal range(i32 0, 65558) i32 @dissect_solaredge(ptr noundef %0, ptr noundef %1, ptr noundef %2, ptr readnone captures(none) %3) #0 {
  %5 = tail call ptr @find_or_create_conversation(ptr noundef %1)
  %6 = load i32, ptr @proto_solaredge, align 4
  %7 = tail call ptr @conversation_get_proto_data(ptr noundef %5, i32 noundef %6)
  %8 = icmp eq ptr %7, null
  br i1 %8, label %9, label %13

9:                                                ; preds = %4
  %10 = tail call ptr @wmem_file_scope()
  %11 = tail call noalias dereferenceable_or_null(24) ptr @wmem_alloc(ptr noundef %10, i64 noundef 24) #7
  store i8 0, ptr %11, align 8
  %12 = load i32, ptr @proto_solaredge, align 4
  tail call void @conversation_add_proto_data(ptr noundef %5, i32 noundef %12, ptr noundef %11)
  br label %13

13:                                               ; preds = %9, %4
  %14 = load i32, ptr @ett_solaredge_packet, align 4
  %15 = tail call fastcc i32 @dissect_solaredge_recursive(ptr noundef %0, ptr noundef %1, ptr noundef %2, i32 noundef %14, ptr noundef %5)
  ret i32 %15
}